target datalayout = "e-m:e-p270:32:32-p271:32:32-p272:64:64-i64:64-i128:128-f80:128-n8:16:32:64-S128"
target triple = "x86_64-pc-linux-gnu"

%struct.decode_as_s = type { ptr, ptr, i32, i32, ptr, ptr, ptr, ptr, ptr, ptr, ptr }

@decode_as_list = global ptr null, align 8

; Function Attrs: null_pointer_is_valid sspstrong uwtable
define void @register_decode_as(ptr noundef %0) #0 {
  %2 = alloca ptr, align 8
  %3 = alloca ptr, align 8
  store ptr %0, ptr %2, align 8
  call void @llvm.lifetime.start.p0(i64 8, ptr %3) #15
  br label %4

4:                                                ; preds = %1
  br label %5

5:                                                ; preds = %4
  br label %6

6:                                                ; preds = %5
  br label %7

7:                                                ; preds = %6
  br label %8

8:                                                ; preds = %7
  br label %9

9:                                                ; preds = %8
  br label %10

10:                                               ; preds = %9
  br label %11

11:                                               ; preds = %10
  br label %12

12:                                               ; preds = %11
  %13 = load ptr, ptr %2, align 8
  %14 = getelementptr inbounds nuw %struct.decode_as_s, ptr %13, i32 0, i32 1
  %15 = load ptr, ptr %14, align 8
  %16 = call ptr @find_dissector_table(ptr noundef %15)
  store ptr %16, ptr %3, align 8
  %17 = load ptr, ptr %3, align 8
  %18 = icmp ne ptr %17, null
  br i1 %18, label %19, label %21

19:                                               ; preds = %12
  %20 = load ptr, ptr %3, align 8
  call void @dissector_table_allow_decode_as(ptr noundef %20)
  br label %21

21:                                               ; preds = %19, %12
  %22 = load ptr, ptr @decode_as_list, align 8
  %23 = load ptr, ptr %2, align 8
  %24 = call ptr @g_list_prepend(ptr noundef %22, ptr noundef %23)
  store ptr %24, ptr @decode_as_list, align 8
  call void @llvm.lifetime.end.p0(i64 8, ptr %3) #15
  ret void
}