; Function Attrs: null_pointer_is_valid sspstrong uwtable
define void @register_decode_as(ptr noundef %0) local_unnamed_addr #0 {
  %2 = getelementptr inbounds nuw i8, ptr %0, i64 8
  %3 = load ptr, ptr %2, align 8
  %4 = tail call ptr @find_dissector_table(ptr noundef %3)
  %.not = icmp eq ptr %4, null
  br i1 %.not, label %6, label %5

5:                                                ; preds = %1
  tail call void @dissector_table_allow_decode_as(ptr noundef nonnull %4)
  br label %6

6:                                                ; preds = %5, %1
  %7 = load ptr, ptr @decode_as_list, align 8
  %8 = tail call ptr @g_list_prepend(ptr noundef %7, ptr noundef %0)
  store ptr %8, ptr @decode_as_list, align 8
  ret void
}